target datalayout = "e-m:e-p270:32:32-p271:32:32-p272:64:64-i64:64-i128:128-f80:128-n8:16:32:64-S128"
target triple = "x86_64-pc-linux-gnu"

%struct.rb_code_location_struct = type { %struct.rb_code_position_struct, %struct.rb_code_position_struct }
%struct.rb_code_position_struct = type { i32, i32 }
%struct.lex_context = type { i16, [2 x i8] }
%struct.parser_params = type { ptr, ptr, %struct.anon.12, i64, i64, i32, i32, i32, i32, i32, ptr, ptr, ptr, ptr, i32, i32, ptr, i64, ptr, ptr, ptr, ptr, i64, i64, %struct.anon.13, ptr, i32, ptr, i32, i64, %struct.lex_context, ptr, ptr, ptr, i32, i64, ptr, ptr, i32, ptr }
%struct.anon.12 = type { ptr, ptr, ptr, %struct.parser_string_buffer, ptr, ptr, ptr, ptr, ptr, ptr, i32, i32, i32, i32 }
%struct.parser_string_buffer = type { ptr, ptr }
%struct.anon.13 = type { ptr, i32, i32, i32, i32 }
%struct.RNode = type { i64, %struct.rb_code_location_struct, i32 }
%struct.local_vars = type { ptr, ptr, ptr, ptr, %struct.anon.16, ptr }
%struct.anon.16 = type { ptr, ptr, ptr }

@.str.869 = private unnamed_addr constant [64 x i8] c"numbered parameter is already used in\0A%s:%d: current block here\00", align 1

; Function Attrs: inlinehint nounwind sspstrong uwtable
define internal void @parser_show_error_line(ptr noundef %0, ptr noundef %1) #2 {
  %3 = alloca ptr, align 8
  %4 = alloca ptr, align 8
  %5 = alloca ptr, align 8
  %6 = alloca i32, align 4
  %7 = alloca i32, align 4
  store ptr %0, ptr %3, align 8, !tbaa !7
  store ptr %1, ptr %4, align 8, !tbaa !39
  call void @llvm.lifetime.start.p0(i64 8, ptr %5) #26
  call void @llvm.lifetime.start.p0(i64 4, ptr %6) #26
  %8 = load ptr, ptr %3, align 8, !tbaa !7
  %9 = getelementptr inbounds nuw %struct.parser_params, ptr %8, i32 0, i32 15
  %10 = load i32, ptr %9, align 4, !tbaa !82
  store i32 %10, ptr %6, align 4, !tbaa !34
  %11 = load ptr, ptr %4, align 8, !tbaa !39
  %12 = icmp ne ptr %11, null
  br i1 %12, label %14, label %13

13:                                               ; preds = %2
  store i32 1, ptr %7, align 4
  br label %36

14:                                               ; preds = %2
  %15 = load ptr, ptr %4, align 8, !tbaa !39
  %16 = getelementptr inbounds nuw %struct.rb_code_location_struct, ptr %15, i32 0, i32 0
  %17 = getelementptr inbounds nuw %struct.rb_code_position_struct, ptr %16, i32 0, i32 0
  %18 = load i32, ptr %17, align 4, !tbaa !173
  %19 = load i32, ptr %6, align 4, !tbaa !34
  %20 = icmp eq i32 %18, %19
  br i1 %20, label %21, label %26

21:                                               ; preds = %14
  %22 = load ptr, ptr %3, align 8, !tbaa !7
  %23 = getelementptr inbounds nuw %struct.parser_params, ptr %22, i32 0, i32 2
  %24 = getelementptr inbounds nuw %struct.anon.12, ptr %23, i32 0, i32 4
  %25 = load ptr, ptr %24, align 8, !tbaa !590
  store ptr %25, ptr %5, align 8, !tbaa !14
  br label %27

26:                                               ; preds = %14
  store i32 1, ptr %7, align 4
  br label %36

27:                                               ; preds = %21
  br label %28

28:                                               ; preds = %27
  %29 = load ptr, ptr %3, align 8, !tbaa !7
  %30 = load ptr, ptr %3, align 8, !tbaa !7
  %31 = getelementptr inbounds nuw %struct.parser_params, ptr %30, i32 0, i32 35
  %32 = load i64, ptr %31, align 8, !tbaa !453
  %33 = load ptr, ptr %4, align 8, !tbaa !39
  %34 = load i32, ptr %6, align 4, !tbaa !34
  %35 = load ptr, ptr %5, align 8, !tbaa !14
  call void @ruby_show_error_line(ptr noundef %29, i64 noundef %32, ptr noundef %33, i32 noundef %34, ptr noundef %35)
  store i32 0, ptr %7, align 4
  br label %36

36:                                               ; preds = %28, %26, %13
  call void @llvm.lifetime.end.p0(i64 4, ptr %6) #26
  call void @llvm.lifetime.end.p0(i64 8, ptr %5) #26
  %37 = load i32, ptr %7, align 4
  switch i32 %37, label %39 [
    i32 0, label %38
    i32 1, label %38
  ]

38:                                               ; preds = %36, %36
  ret void

39:                                               ; preds = %36
  unreachable
}

; Function Attrs: inlinehint nounwind sspstrong uwtable
define internal i32 @nd_line(ptr noundef %0) #2 {
  %2 = alloca i32, align 4
  %3 = alloca ptr, align 8
  %4 = alloca i64, align 8
  store ptr %0, ptr %3, align 8, !tbaa !65
  %5 = load ptr, ptr %3, align 8, !tbaa !65
  %6 = icmp ne ptr %5, null
  br i1 %6, label %8, label %7

7:                                                ; preds = %1
  store i32 -1, ptr %2, align 4
  br label %15

8:                                                ; preds = %1
  call void @llvm.lifetime.start.p0(i64 8, ptr %4) #26
  %9 = load ptr, ptr %3, align 8, !tbaa !65
  %10 = getelementptr inbounds nuw %struct.RNode, ptr %9, i32 0, i32 0
  %11 = load i64, ptr %10, align 8, !tbaa !110
  store i64 %11, ptr %4, align 8, !tbaa !12
  %12 = load i64, ptr %4, align 8, !tbaa !12
  %13 = ashr i64 %12, 15
  %14 = trunc i64 %13 to i32
  store i32 %14, ptr %2, align 4
  call void @llvm.lifetime.end.p0(i64 8, ptr %4) #26
  br label %15

15:                                               ; preds = %8, %7
  %16 = load i32, ptr %2, align 4
  ret i32 %16
}

; Function Attrs: nounwind sspstrong uwtable
define internal i32 @numparam_used_p(ptr noundef %0) #0 {
  %2 = alloca i32, align 4
  %3 = alloca ptr, align 8
  %4 = alloca ptr, align 8
  %5 = alloca i32, align 4
  store ptr %0, ptr %3, align 8, !tbaa !7
  call void @llvm.lifetime.start.p0(i64 8, ptr %4) #26
  %6 = load ptr, ptr %3, align 8, !tbaa !7
  %7 = getelementptr inbounds nuw %struct.parser_params, ptr %6, i32 0, i32 11
  %8 = load ptr, ptr %7, align 8, !tbaa !176
  %9 = getelementptr inbounds nuw %struct.local_vars, ptr %8, i32 0, i32 4
  %10 = getelementptr inbounds nuw %struct.anon.16, ptr %9, i32 0, i32 2
  %11 = load ptr, ptr %10, align 8, !tbaa !185
  store ptr %11, ptr %4, align 8, !tbaa !65
  %12 = load ptr, ptr %4, align 8, !tbaa !65
  %13 = icmp ne ptr %12, null
  br i1 %13, label %14, label %24

14:                                               ; preds = %1
  %15 = load ptr, ptr %3, align 8, !tbaa !7
  %16 = load ptr, ptr %3, align 8, !tbaa !7
  %17 = getelementptr inbounds nuw %struct.parser_params, ptr %16, i32 0, i32 16
  %18 = load ptr, ptr %17, align 8, !tbaa !81
  %19 = load ptr, ptr %4, align 8, !tbaa !65
  %20 = call i32 @nd_line(ptr noundef %19)
  call void (ptr, ptr, ptr, ...) @parser_compile_error(ptr noundef %15, ptr noundef null, ptr noundef @.str.869, ptr noundef %18, i32 noundef %20)
  %21 = load ptr, ptr %3, align 8, !tbaa !7
  %22 = load ptr, ptr %4, align 8, !tbaa !65
  %23 = getelementptr inbounds nuw %struct.RNode, ptr %22, i32 0, i32 1
  call void @parser_show_error_line(ptr noundef %21, ptr noundef %23)
  store i32 1, ptr %2, align 4
  store i32 1, ptr %5, align 4
  br label %25

24:                                               ; preds = %1
  store i32 0, ptr %2, align 4
  store i32 1, ptr %5, align 4
  br label %25

25:                                               ; preds = %24, %14
  call void @llvm.lifetime.end.p0(i64 8, ptr %4) #26
  %26 = load i32, ptr %2, align 4
  ret i32 %26
}