; Function Attrs: nounwind sspstrong uwtable
define internal fastcc range(i32 0, 2) i32 @numparam_used_p(ptr noundef captures(none) %0) unnamed_addr #0 {
  %2 = getelementptr inbounds nuw i8, ptr %0, i64 168
  %3 = load ptr, ptr %2, align 8, !tbaa !100
  %4 = getelementptr inbounds nuw i8, ptr %3, i64 48
  %5 = load ptr, ptr %4, align 8, !tbaa !106
  %.not = icmp eq ptr %5, null
  br i1 %.not, label %parser_show_error_line.exit, label %nd_line.exit

nd_line.exit:                                     ; preds = %1
  %6 = getelementptr inbounds nuw i8, ptr %0, i64 200
  %7 = load ptr, ptr %6, align 8, !tbaa !89
  %8 = load i64, ptr %5, align 8, !tbaa !72
  %9 = lshr i64 %8, 15
  %10 = trunc i64 %9 to i32
  tail call void (ptr, ptr, ptr, ...) @parser_compile_error(ptr noundef nonnull %0, ptr noundef null, ptr noundef nonnull @.str.869, ptr noundef %7, i32 noundef %10)
  %11 = getelementptr inbounds nuw i8, ptr %5, i64 8
  %12 = getelementptr inbounds nuw i8, ptr %0, i64 196
  %13 = load i32, ptr %12, align 4, !tbaa !31
  %14 = load i32, ptr %11, align 4, !tbaa !53
  %15 = icmp eq i32 %14, %13
  br i1 %15, label %16, label %parser_show_error_line.exit

16:                                               ; preds = %nd_line.exit
  %17 = getelementptr inbounds nuw i8, ptr %0, i64 56
  %18 = load ptr, ptr %17, align 8, !tbaa !185
  %19 = getelementptr inbounds nuw i8, ptr %0, i64 368
  %20 = load i64, ptr %19, align 8, !tbaa !186
  tail call void @ruby_show_error_line(ptr nonnull readonly poison, i64 noundef %20, ptr noundef nonnull %11, i32 noundef %13, ptr noundef %18)
  br label %parser_show_error_line.exit

parser_show_error_line.exit:                      ; preds = %16, %nd_line.exit, %1
  %.0 = phi i32 [ 0, %1 ], [ 1, %nd_line.exit ], [ 1, %16 ]
  ret i32 %.0
}